; Function Attrs: mustprogress uwtable
define hidden void @_ZN3euf9bv_plugin4undoEv(ptr noundef nonnull align 8 dereferenceable(80) %this) unnamed_addr #3 align 2 {
entry:
  %m_undo_split = getelementptr inbounds i8, ptr %this, i64 72
  %0 = load ptr, ptr %m_undo_split, align 8
  %cmp.i.i = icmp eq ptr %0, null
  br i1 %cmp.i.i, label %entry._ZN6vectorIPN3euf5enodeELb0EjE4backEv.exit_crit_edge, label %if.end.i.i

entry._ZN6vectorIPN3euf5enodeELb0EjE4backEv.exit_crit_edge: ; preds = %entry
  %.pre = load i32, ptr inttoptr (i64 -4 to ptr), align 4
  %.pre4 = add i32 %.pre, -1
  br label %_ZN6vectorIPN3euf5enodeELb0EjE4backEv.exit

if.end.i.i:                                       ; preds = %entry
  %arrayidx.i.i = getelementptr inbounds i8, ptr %0, i64 -4
  %1 = load i32, ptr %arrayidx.i.i, align 4
  %2 = add i32 %1, -1
  %3 = zext i32 %2 to i64
  br label %_ZN6vectorIPN3euf5enodeELb0EjE4backEv.exit

_ZN6vectorIPN3euf5enodeELb0EjE4backEv.exit:       ; preds = %entry._ZN6vectorIPN3euf5enodeELb0EjE4backEv.exit_crit_edge, %if.end.i.i
  %dec.i.pre-phi = phi i32 [ %.pre4, %entry._ZN6vectorIPN3euf5enodeELb0EjE4backEv.exit_crit_edge ], [ %2, %if.end.i.i ]
  %retval.0.i.i = phi i64 [ 4294967295, %entry._ZN6vectorIPN3euf5enodeELb0EjE4backEv.exit_crit_edge ], [ %3, %if.end.i.i ]
  %arrayidx.i1.i = getelementptr inbounds ptr, ptr %0, i64 %retval.0.i.i
  %4 = load ptr, ptr %arrayidx.i1.i, align 8
  %arrayidx.i = getelementptr inbounds i8, ptr %0, i64 -4
  store i32 %dec.i.pre-phi, ptr %arrayidx.i, align 4
  %5 = load ptr, ptr %4, align 8
  %6 = load i32, ptr %5, align 4
  %m_info.i = getelementptr inbounds i8, ptr %this, i64 40
  %add.i = add i32 %6, 1
  %7 = load ptr, ptr %m_info.i, align 8
  %cmp.i.i.i = icmp eq ptr %7, null
  br i1 %cmp.i.i.i, label %_ZNK6vectorIN3euf9bv_plugin10slice_infoELb0EjE4sizeEv.exit.i.i, label %_ZNK6vectorIN3euf9bv_plugin10slice_infoELb0EjE4sizeEv.exit.thread.i.i

_ZNK6vectorIN3euf9bv_plugin10slice_infoELb0EjE4sizeEv.exit.i.i: ; preds = %_ZN6vectorIPN3euf5enodeELb0EjE4backEv.exit
  %cmp.not.i.i = icmp ne i32 %add.i, 0
  tail call void @llvm.assume(i1 %cmp.not.i.i)
  br label %while.cond.i.i.i.preheader

_ZNK6vectorIN3euf9bv_plugin10slice_infoELb0EjE4sizeEv.exit.thread.i.i: ; preds = %_ZN6vectorIPN3euf5enodeELb0EjE4backEv.exit
  %arrayidx.i.i.i = getelementptr inbounds i8, ptr %7, i64 -4
  %8 = load i32, ptr %arrayidx.i.i.i, align 4
  %cmp4.i.i = icmp ult i32 %8, %add.i
  br i1 %cmp4.i.i, label %while.cond.i.i.i.preheader, label %_ZN3euf9bv_plugin4infoEPNS_5enodeE.exit

while.cond.i.i.i.preheader:                       ; preds = %_ZNK6vectorIN3euf9bv_plugin10slice_infoELb0EjE4sizeEv.exit.i.i, %_ZNK6vectorIN3euf9bv_plugin10slice_infoELb0EjE4sizeEv.exit.thread.i.i
  %.ph = phi ptr [ %7, %_ZNK6vectorIN3euf9bv_plugin10slice_infoELb0EjE4sizeEv.exit.thread.i.i ], [ null, %_ZNK6vectorIN3euf9bv_plugin10slice_infoELb0EjE4sizeEv.exit.i.i ]
  %retval.0.i16.i.i.i.ph = phi i32 [ %8, %_ZNK6vectorIN3euf9bv_plugin10slice_infoELb0EjE4sizeEv.exit.thread.i.i ], [ 0, %_ZNK6vectorIN3euf9bv_plugin10slice_infoELb0EjE4sizeEv.exit.i.i ]
  br label %while.cond.i.i.i

while.cond.i.i.i:                                 ; preds = %while.cond.i.i.i.preheader, %while.body.i.i.i
  %9 = phi ptr [ %.pr.pre.i.i.i, %while.body.i.i.i ], [ %.ph, %while.cond.i.i.i.preheader ]
  %cmp.i10.i.i.i = icmp eq ptr %9, null
  br i1 %cmp.i10.i.i.i, label %_ZNK6vectorIN3euf9bv_plugin10slice_infoELb0EjE8capacityEv.exit.i.i.i, label %if.end.i11.i.i.i

if.end.i11.i.i.i:                                 ; preds = %while.cond.i.i.i
  %arrayidx.i12.i.i.i = getelementptr inbounds i8, ptr %9, i64 -8
  %10 = load i32, ptr %arrayidx.i12.i.i.i, align 4
  br label %_ZNK6vectorIN3euf9bv_plugin10slice_infoELb0EjE8capacityEv.exit.i.i.i

_ZNK6vectorIN3euf9bv_plugin10slice_infoELb0EjE8capacityEv.exit.i.i.i: ; preds = %if.end.i11.i.i.i, %while.cond.i.i.i
  %retval.0.i13.i.i.i = phi i32 [ %10, %if.end.i11.i.i.i ], [ 0, %while.cond.i.i.i ]
  %cmp3.i.i.i = icmp ult i32 %retval.0.i13.i.i.i, %add.i
  br i1 %cmp3.i.i.i, label %while.body.i.i.i, label %while.end.i.i.i

while.body.i.i.i:                                 ; preds = %_ZNK6vectorIN3euf9bv_plugin10slice_infoELb0EjE8capacityEv.exit.i.i.i
  tail call void @_ZN6vectorIN3euf9bv_plugin10slice_infoELb0EjE13expand_vectorEv(ptr noundef nonnull align 8 dereferenceable(8) %m_info.i)
  %.pr.pre.i.i.i = load ptr, ptr %m_info.i, align 8
  br label %while.cond.i.i.i, !llvm.loop !17

while.end.i.i.i:                                  ; preds = %_ZNK6vectorIN3euf9bv_plugin10slice_infoELb0EjE8capacityEv.exit.i.i.i
  %arrayidx.i2.i.i = getelementptr inbounds i8, ptr %9, i64 -4
  store i32 %add.i, ptr %arrayidx.i2.i.i, align 4
  %11 = load ptr, ptr %m_info.i, align 8
  %idx.ext6.i.i.i = zext i32 %add.i to i64
  %add.ptr7.i.i.i = getelementptr inbounds %"struct.euf::bv_plugin::slice_info", ptr %11, i64 %idx.ext6.i.i.i
  %cmp8.not17.i.i.i = icmp eq i32 %retval.0.i16.i.i.i.ph, %add.i
  br i1 %cmp8.not17.i.i.i, label %_ZN3euf9bv_plugin4infoEPNS_5enodeE.exit, label %for.body.preheader.i.i.i

for.body.preheader.i.i.i:                         ; preds = %while.end.i.i.i
  %idx.ext.i.i.i = zext i32 %retval.0.i16.i.i.i.ph to i64
  %add.ptr.i.i.i = getelementptr %"struct.euf::bv_plugin::slice_info", ptr %11, i64 %idx.ext.i.i.i
  br label %for.body.i.i.i

for.body.i.i.i:                                   ; preds = %for.body.i.i.i, %for.body.preheader.i.i.i
  %it.018.i.i.i = phi ptr [ %incdec.ptr.i.i.i, %for.body.i.i.i ], [ %add.ptr.i.i.i, %for.body.preheader.i.i.i ]
  store i64 4294967295, ptr %it.018.i.i.i, align 8
  %hi.i.i.i.i = getelementptr inbounds i8, ptr %it.018.i.i.i, i64 8
  tail call void @llvm.memset.p0.i64(ptr noundef nonnull align 8 dereferenceable(24) %hi.i.i.i.i, i8 0, i64 24, i1 false)
  %incdec.ptr.i.i.i = getelementptr inbounds i8, ptr %it.018.i.i.i, i64 32
  %cmp8.not.i.i.i = icmp eq ptr %incdec.ptr.i.i.i, %add.ptr7.i.i.i
  br i1 %cmp8.not.i.i.i, label %_ZN6vectorIN3euf9bv_plugin10slice_infoELb0EjE7reserveEj.exit.loopexit.i, label %for.body.i.i.i, !llvm.loop !19

_ZN6vectorIN3euf9bv_plugin10slice_infoELb0EjE7reserveEj.exit.loopexit.i: ; preds = %for.body.i.i.i
  %.pre.i = load ptr, ptr %m_info.i, align 8
  br label %_ZN3euf9bv_plugin4infoEPNS_5enodeE.exit

_ZN3euf9bv_plugin4infoEPNS_5enodeE.exit:          ; preds = %_ZNK6vectorIN3euf9bv_plugin10slice_infoELb0EjE4sizeEv.exit.thread.i.i, %while.end.i.i.i, %_ZN6vectorIN3euf9bv_plugin10slice_infoELb0EjE7reserveEj.exit.loopexit.i
  %12 = phi ptr [ %.pre.i, %_ZN6vectorIN3euf9bv_plugin10slice_infoELb0EjE7reserveEj.exit.loopexit.i ], [ %7, %_ZNK6vectorIN3euf9bv_plugin10slice_infoELb0EjE4sizeEv.exit.thread.i.i ], [ %11, %while.end.i.i.i ]
  %idxprom.i.i = zext i32 %6 to i64
  %arrayidx.i.i3 = getelementptr inbounds %"struct.euf::bv_plugin::slice_info", ptr %12, i64 %idxprom.i.i
  %hi = getelementptr inbounds i8, ptr %arrayidx.i.i3, i64 8
  tail call void @llvm.memset.p0.i64(ptr noundef nonnull align 8 dereferenceable(16) %hi, i8 0, i64 16, i1 false)
  store i32 -1, ptr %arrayidx.i.i3, align 8
  ret void
}